target datalayout = "e-m:e-p270:32:32-p271:32:32-p272:64:64-i64:64-i128:128-f80:128-n8:16:32:64-S128"
target triple = "x86_64-pc-linux-gnu"

%"struct.dtm_t::req" = type { i32, i32, i32 }
%class.dtm_t = type { %class.htif_t, %class.context_t, ptr, i64, %union.sem_t, %union.sem_t, %union.sem_t, %union.sem_t, %"struct.dtm_t::req", %"struct.dtm_t::resp", i8, i8, i8, i32, i32, i64, i64, i32, i32 }
%class.htif_t = type { %class.chunked_memif_t, i32, %class.memif_t, i64, i8, %"class.std::vector", %"class.std::vector", %"class.std::__cxx11::basic_string", i32, i64, i64, i64, i64, i32, i8, %class.device_list_t, %class.syscall_t, %class.bcd_t, %"class.std::vector.3", %"class.std::vector", %"class.std::vector", %"class.std::map" }
%class.chunked_memif_t = type { ptr }
%class.memif_t = type { ptr, ptr }
%"class.std::__cxx11::basic_string" = type { %"struct.std::__cxx11::basic_string<char>::_Alloc_hider", i64, %union.anon }
%"struct.std::__cxx11::basic_string<char>::_Alloc_hider" = type { ptr }
%union.anon = type { i64, [8 x i8] }
%class.device_list_t = type { %"class.std::vector.3", %class.null_device_t, i64 }
%class.null_device_t = type { %class.device_t }
%class.device_t = type { ptr, %"class.std::vector.8", %"class.std::vector" }
%"class.std::vector.8" = type { %"struct.std::_Vector_base.9" }
%"struct.std::_Vector_base.9" = type { %"struct.std::_Vector_base<std::function<void (command_t)>, std::allocator<std::function<void (command_t)>>>::_Vector_impl" }
%"struct.std::_Vector_base<std::function<void (command_t)>, std::allocator<std::function<void (command_t)>>>::_Vector_impl" = type { %"struct.std::_Vector_base<std::function<void (command_t)>, std::allocator<std::function<void (command_t)>>>::_Vector_impl_data" }
%"struct.std::_Vector_base<std::function<void (command_t)>, std::allocator<std::function<void (command_t)>>>::_Vector_impl_data" = type { ptr, ptr, ptr }
%class.syscall_t = type { %class.device_t, ptr, ptr, %"class.std::vector.13", %class.fds_t, %"class.std::vector.23", %"class.std::__cxx11::basic_string" }
%"class.std::vector.13" = type { %"struct.std::_Vector_base.14" }
%"struct.std::_Vector_base.14" = type { %"struct.std::_Vector_base<unsigned long (syscall_t::*)(unsigned long, unsigned long, unsigned long, unsigned long, unsigned long, unsigned long, unsigned long), std::allocator<unsigned long (syscall_t::*)(unsigned long, unsigned long, unsigned long, unsigned long, unsigned long, unsigned long, unsigned long)>>::_Vector_impl" }
%"struct.std::_Vector_base<unsigned long (syscall_t::*)(unsigned long, unsigned long, unsigned long, unsigned long, unsigned long, unsigned long, unsigned long), std::allocator<unsigned long (syscall_t::*)(unsigned long, unsigned long, unsigned long, unsigned long, unsigned long, unsigned long, unsigned long)>>::_Vector_impl" = type { %"struct.std::_Vector_base<unsigned long (syscall_t::*)(unsigned long, unsigned long, unsigned long, unsigned long, unsigned long, unsigned long, unsigned long), std::allocator<unsigned long (syscall_t::*)(unsigned long, unsigned long, unsigned long, unsigned long, unsigned long, unsigned long, unsigned long)>>::_Vector_impl_data" }
%"struct.std::_Vector_base<unsigned long (syscall_t::*)(unsigned long, unsigned long, unsigned long, unsigned long, unsigned long, unsigned long, unsigned long), std::allocator<unsigned long (syscall_t::*)(unsigned long, unsigned long, unsigned long, unsigned long, unsigned long, unsigned long, unsigned long)>>::_Vector_impl_data" = type { ptr, ptr, ptr }
%class.fds_t = type { %"class.std::vector.18" }
%"class.std::vector.18" = type { %"struct.std::_Vector_base.19" }
%"struct.std::_Vector_base.19" = type { %"struct.std::_Vector_base<int, std::allocator<int>>::_Vector_impl" }
%"struct.std::_Vector_base<int, std::allocator<int>>::_Vector_impl" = type { %"struct.std::_Vector_base<int, std::allocator<int>>::_Vector_impl_data" }
%"struct.std::_Vector_base<int, std::allocator<int>>::_Vector_impl_data" = type { ptr, ptr, ptr }
%"class.std::vector.23" = type { %"struct.std::_Vector_base.24" }
%"struct.std::_Vector_base.24" = type { %"struct.std::_Vector_base<unsigned long, std::allocator<unsigned long>>::_Vector_impl" }
%"struct.std::_Vector_base<unsigned long, std::allocator<unsigned long>>::_Vector_impl" = type { %"struct.std::_Vector_base<unsigned long, std::allocator<unsigned long>>::_Vector_impl_data" }
%"struct.std::_Vector_base<unsigned long, std::allocator<unsigned long>>::_Vector_impl_data" = type { ptr, ptr, ptr }
%class.bcd_t = type { %class.device_t, %"class.std::queue" }
%"class.std::queue" = type { %"class.std::deque" }
%"class.std::deque" = type { %"class.std::_Deque_base" }
%"class.std::_Deque_base" = type { %"struct.std::_Deque_base<command_t, std::allocator<command_t>>::_Deque_impl" }
%"struct.std::_Deque_base<command_t, std::allocator<command_t>>::_Deque_impl" = type { %"struct.std::_Deque_base<command_t, std::allocator<command_t>>::_Deque_impl_data" }
%"struct.std::_Deque_base<command_t, std::allocator<command_t>>::_Deque_impl_data" = type { ptr, i64, %"struct.std::_Deque_iterator", %"struct.std::_Deque_iterator" }
%"struct.std::_Deque_iterator" = type { ptr, ptr, ptr, ptr }
%"class.std::vector.3" = type { %"struct.std::_Vector_base.4" }
%"struct.std::_Vector_base.4" = type { %"struct.std::_Vector_base<device_t *, std::allocator<device_t *>>::_Vector_impl" }
%"struct.std::_Vector_base<device_t *, std::allocator<device_t *>>::_Vector_impl" = type { %"struct.std::_Vector_base<device_t *, std::allocator<device_t *>>::_Vector_impl_data" }
%"struct.std::_Vector_base<device_t *, std::allocator<device_t *>>::_Vector_impl_data" = type { ptr, ptr, ptr }
%"class.std::vector" = type { %"struct.std::_Vector_base" }
%"struct.std::_Vector_base" = type { %"struct.std::_Vector_base<std::__cxx11::basic_string<char>, std::allocator<std::__cxx11::basic_string<char>>>::_Vector_impl" }
%"struct.std::_Vector_base<std::__cxx11::basic_string<char>, std::allocator<std::__cxx11::basic_string<char>>>::_Vector_impl" = type { %"struct.std::_Vector_base<std::__cxx11::basic_string<char>, std::allocator<std::__cxx11::basic_string<char>>>::_Vector_impl_data" }
%"struct.std::_Vector_base<std::__cxx11::basic_string<char>, std::allocator<std::__cxx11::basic_string<char>>>::_Vector_impl_data" = type { ptr, ptr, ptr }
%"class.std::map" = type { %"class.std::_Rb_tree" }
%"class.std::_Rb_tree" = type { %"struct.std::_Rb_tree<unsigned long, std::pair<const unsigned long, std::__cxx11::basic_string<char>>, std::_Select1st<std::pair<const unsigned long, std::__cxx11::basic_string<char>>>, std::less<unsigned long>>::_Rb_tree_impl" }
%"struct.std::_Rb_tree<unsigned long, std::pair<const unsigned long, std::__cxx11::basic_string<char>>, std::_Select1st<std::pair<const unsigned long, std::__cxx11::basic_string<char>>>, std::less<unsigned long>>::_Rb_tree_impl" = type { %"struct.std::_Rb_tree_key_compare", %"struct.std::_Rb_tree_header" }
%"struct.std::_Rb_tree_key_compare" = type { %"struct.std::less" }
%"struct.std::less" = type { i8 }
%"struct.std::_Rb_tree_header" = type { %"struct.std::_Rb_tree_node_base", i64 }
%"struct.std::_Rb_tree_node_base" = type { i32, ptr, ptr, ptr }
%class.context_t = type { ptr, ptr, ptr, %"class.std::unique_ptr" }
%"class.std::unique_ptr" = type { %"struct.std::__uniq_ptr_data" }
%"struct.std::__uniq_ptr_data" = type { %"class.std::__uniq_ptr_impl" }
%"class.std::__uniq_ptr_impl" = type { %"class.std::tuple" }
%"class.std::tuple" = type { %"struct.std::_Tuple_impl" }
%"struct.std::_Tuple_impl" = type { %"struct.std::_Head_base.35" }
%"struct.std::_Head_base.35" = type { ptr }
%union.sem_t = type { i64, [24 x i8] }
%"struct.dtm_t::resp" = type { i32, i32 }

; Function Attrs: mustprogress uwtable
define void @_ZN5dtm_t4tickEbbNS_4respE(ptr noundef nonnull align 8 dereferenceable(928) %0, i1 noundef zeroext %1, i1 noundef zeroext %2, i64 %3) #0 align 2 {
  %5 = alloca %"struct.dtm_t::resp", align 4
  %6 = alloca ptr, align 8
  %7 = alloca i8, align 1
  %8 = alloca i8, align 1
  store i64 %3, ptr %5, align 4
  store ptr %0, ptr %6, align 8
  %9 = zext i1 %1 to i8
  store i8 %9, ptr %7, align 1
  %10 = zext i1 %2 to i8
  store i8 %10, ptr %8, align 1
  %11 = load ptr, ptr %6, align 8
  %12 = getelementptr inbounds %class.dtm_t, ptr %11, i32 0, i32 12
  %13 = load i8, ptr %12, align 2
  %14 = trunc i8 %13 to i1
  br i1 %14, label %29, label %15

15:                                               ; preds = %4
  %16 = getelementptr inbounds %class.dtm_t, ptr %11, i32 0, i32 11
  %17 = load i8, ptr %16, align 1
  %18 = trunc i8 %17 to i1
  br i1 %18, label %21, label %19

19:                                               ; preds = %15
  %20 = getelementptr inbounds %class.dtm_t, ptr %11, i32 0, i32 11
  store i8 1, ptr %20, align 1
  br label %28

21:                                               ; preds = %15
  %22 = load i8, ptr %7, align 1
  %23 = trunc i8 %22 to i1
  br i1 %23, label %24, label %27

24:                                               ; preds = %21
  %25 = getelementptr inbounds %class.dtm_t, ptr %11, i32 0, i32 11
  store i8 0, ptr %25, align 1
  %26 = getelementptr inbounds %class.dtm_t, ptr %11, i32 0, i32 12
  store i8 1, ptr %26, align 2
  br label %27

27:                                               ; preds = %24, %21
  br label %28

28:                                               ; preds = %27, %19
  br label %29

29:                                               ; preds = %28, %4
  %30 = load i8, ptr %8, align 1
  %31 = trunc i8 %30 to i1
  br i1 %31, label %32, label %38

32:                                               ; preds = %29
  %33 = getelementptr inbounds %class.dtm_t, ptr %11, i32 0, i32 12
  store i8 0, ptr %33, align 2
  %34 = getelementptr inbounds %class.dtm_t, ptr %11, i32 0, i32 9
  call void @llvm.memcpy.p0.p0.i64(ptr align 4 %34, ptr align 4 %5, i64 8, i1 false)
  %35 = call noundef ptr @_ZN9context_t7currentEv()
  %36 = getelementptr inbounds %class.dtm_t, ptr %11, i32 0, i32 2
  store ptr %35, ptr %36, align 8
  %37 = getelementptr inbounds %class.dtm_t, ptr %11, i32 0, i32 1
  call void @_ZN9context_t9switch_toEv(ptr noundef nonnull align 8 dereferenceable(32) %37)
  br label %38

38:                                               ; preds = %32, %29
  ret void
}