; Function Attrs: mustprogress uwtable
define void @_ZN5dtm_t4tickEbbNS_4respE(ptr noundef nonnull align 8 dereferenceable(928) %0, i1 noundef zeroext %1, i1 noundef zeroext %2, i64 %3) local_unnamed_addr #0 align 2 {
  %5 = getelementptr inbounds i8, ptr %0, i64 894
  %6 = load i8, ptr %5, align 2
  %7 = and i8 %6, 1
  %.not = icmp eq i8 %7, 0
  br i1 %.not, label %8, label %15

8:                                                ; preds = %4
  %9 = getelementptr inbounds i8, ptr %0, i64 893
  %10 = load i8, ptr %9, align 1
  %11 = and i8 %10, 1
  %.not2 = icmp eq i8 %11, 0
  br i1 %.not2, label %12, label %13

12:                                               ; preds = %8
  store i8 1, ptr %9, align 1
  br label %15

13:                                               ; preds = %8
  br i1 %1, label %14, label %15

14:                                               ; preds = %13
  store i8 0, ptr %9, align 1
  store i8 1, ptr %5, align 2
  br label %15

15:                                               ; preds = %12, %14, %13, %4
  br i1 %2, label %16, label %21

16:                                               ; preds = %15
  store i8 0, ptr %5, align 2
  %17 = getelementptr inbounds i8, ptr %0, i64 884
  store i64 %3, ptr %17, align 4
  %18 = tail call noundef ptr @_ZN9context_t7currentEv()
  %19 = getelementptr inbounds i8, ptr %0, i64 728
  store ptr %18, ptr %19, align 8
  %20 = getelementptr inbounds i8, ptr %0, i64 696
  tail call void @_ZN9context_t9switch_toEv(ptr noundef nonnull align 8 dereferenceable(32) %20)
  br label %21

21:                                               ; preds = %16, %15
  ret void
}